; Function Attrs: mustprogress uwtable
define hidden void @_ZN4lean25initialize_name_generatorEv() local_unnamed_addr #0 personality ptr @__gxx_personality_v0 {
  %1 = alloca %"class.lean::name", align 8
  %2 = tail call noalias noundef nonnull dereferenceable(8) ptr @_Znwm(i64 noundef 8) #20
  store ptr null, ptr %2, align 8, !tbaa !42
  store ptr %2, ptr @_ZN4leanL15g_ngen_prefixesE, align 8, !tbaa !20
  %3 = tail call noalias noundef nonnull dereferenceable(8) ptr @_Znwm(i64 noundef 8) #20
  call void @llvm.lifetime.start.p0(i64 8, ptr nonnull %1) #16
  store ptr inttoptr (i64 1 to ptr), ptr %1, align 8, !tbaa !3
  invoke void @_ZN4lean4nameC2ERKS0_PKc(ptr noundef nonnull align 8 dereferenceable(8) %3, ptr noundef nonnull align 8 dereferenceable(8) %1, ptr noundef nonnull @.str)
          to label %4 unwind label %.body

4:                                                ; preds = %0
  %5 = load ptr, ptr %1, align 8, !tbaa !3
  %6 = ptrtoint ptr %5 to i64
  %7 = and i64 %6, 1
  %.not.i.i.i = icmp eq i64 %7, 0
  br i1 %.not.i.i.i, label %8, label %19

8:                                                ; preds = %4
  %9 = load i32, ptr %5, align 4, !tbaa !8
  %10 = icmp sgt i32 %9, 1
  br i1 %10, label %11, label %13, !prof !11

11:                                               ; preds = %8
  %12 = add nsw i32 %9, -1
  store i32 %12, ptr %5, align 4, !tbaa !8
  br label %19

13:                                               ; preds = %8
  %.not.i.i.i.i = icmp eq i32 %9, 0
  br i1 %.not.i.i.i.i, label %19, label %14

14:                                               ; preds = %13
  invoke void @lean_dec_ref_cold(ptr noundef nonnull %5)
          to label %19 unwind label %15

15:                                               ; preds = %14
  %16 = landingpad { ptr, i32 }
          catch ptr null
  %17 = extractvalue { ptr, i32 } %16, 0
  call void @__clang_call_terminate(ptr %17) #17
  unreachable

.body:                                            ; preds = %0
  %18 = landingpad { ptr, i32 }
          cleanup
  call void @_ZN4lean10object_refD2Ev(ptr noundef nonnull align 8 dereferenceable(8) %1) #16
  call void @llvm.lifetime.end.p0(i64 8, ptr nonnull %1) #16
  call void @_ZdlPvm(ptr noundef nonnull %3, i64 noundef 8) #19
  resume { ptr, i32 } %18

19:                                               ; preds = %14, %13, %11, %4
  call void @llvm.lifetime.end.p0(i64 8, ptr nonnull %1) #16
  store ptr %3, ptr @_ZN4leanL12g_tmp_prefixE, align 8, !tbaa !15
  %20 = load ptr, ptr %3, align 8, !tbaa !3
  call void @lean_mark_persistent(ptr noundef %20)
  %21 = load ptr, ptr @_ZN4leanL12g_tmp_prefixE, align 8, !tbaa !15
  %22 = load ptr, ptr @_ZN4leanL15g_ngen_prefixesE, align 8, !tbaa !20
  call void @_ZN4lean7rb_treeINS_4nameENS_14name_quick_cmpEE6insertERKS1_(ptr noundef nonnull align 8 dereferenceable(8) %22, ptr noundef nonnull align 8 dereferenceable(8) %21)
  ret void
}